target datalayout = "e-m:e-p270:32:32-p271:32:32-p272:64:64-i64:64-i128:128-f80:128-n8:16:32:64-S128"
target triple = "x86_64-pc-linux-gnu"

%struct.code = type { i8, i8, i16 }
%struct.z_stream_s = type { ptr, i32, i64, ptr, i32, i64, ptr, ptr, ptr, ptr, ptr, i32, i64, i64 }
%struct.inflate_state = type { ptr, i32, i32, i32, i32, i32, i32, i64, i64, ptr, i32, i32, i32, i32, ptr, i64, i32, i32, i32, i32, ptr, ptr, i32, i32, i32, i32, i32, i32, ptr, [320 x i16], [288 x i16], [1444 x %struct.code], i32, i32, i32 }

; Function Attrs: nounwind uwtable
define internal i32 @inflateStateCheck(ptr noundef %0) #0 {
  %2 = alloca i32, align 4
  %3 = alloca ptr, align 8
  %4 = alloca ptr, align 8
  store ptr %0, ptr %3, align 8
  %5 = load ptr, ptr %3, align 8
  %6 = icmp eq ptr %5, null
  br i1 %6, label %17, label %7

7:                                                ; preds = %1
  %8 = load ptr, ptr %3, align 8
  %9 = getelementptr inbounds %struct.z_stream_s, ptr %8, i32 0, i32 8
  %10 = load ptr, ptr %9, align 8
  %11 = icmp eq ptr %10, null
  br i1 %11, label %17, label %12

12:                                               ; preds = %7
  %13 = load ptr, ptr %3, align 8
  %14 = getelementptr inbounds %struct.z_stream_s, ptr %13, i32 0, i32 9
  %15 = load ptr, ptr %14, align 8
  %16 = icmp eq ptr %15, null
  br i1 %16, label %17, label %18

17:                                               ; preds = %12, %7, %1
  store i32 1, ptr %2, align 4
  br label %42

18:                                               ; preds = %12
  %19 = load ptr, ptr %3, align 8
  %20 = getelementptr inbounds %struct.z_stream_s, ptr %19, i32 0, i32 7
  %21 = load ptr, ptr %20, align 8
  store ptr %21, ptr %4, align 8
  %22 = load ptr, ptr %4, align 8
  %23 = icmp eq ptr %22, null
  br i1 %23, label %40, label %24

24:                                               ; preds = %18
  %25 = load ptr, ptr %4, align 8
  %26 = getelementptr inbounds %struct.inflate_state, ptr %25, i32 0, i32 0
  %27 = load ptr, ptr %26, align 8
  %28 = load ptr, ptr %3, align 8
  %29 = icmp ne ptr %27, %28
  br i1 %29, label %40, label %30

30:                                               ; preds = %24
  %31 = load ptr, ptr %4, align 8
  %32 = getelementptr inbounds %struct.inflate_state, ptr %31, i32 0, i32 1
  %33 = load i32, ptr %32, align 8
  %34 = icmp ult i32 %33, 16180
  br i1 %34, label %40, label %35

35:                                               ; preds = %30
  %36 = load ptr, ptr %4, align 8
  %37 = getelementptr inbounds %struct.inflate_state, ptr %36, i32 0, i32 1
  %38 = load i32, ptr %37, align 8
  %39 = icmp ugt i32 %38, 16211
  br i1 %39, label %40, label %41

40:                                               ; preds = %35, %30, %24, %18
  store i32 1, ptr %2, align 4
  br label %42

41:                                               ; preds = %35
  store i32 0, ptr %2, align 4
  br label %42

42:                                               ; preds = %41, %40, %17
  %43 = load i32, ptr %2, align 4
  ret i32 %43
}

; Function Attrs: nounwind uwtable
define dso_local i32 @cm_zlib_inflateResetKeep(ptr noundef %0) #0 {
  %2 = alloca i32, align 4
  %3 = alloca ptr, align 8
  %4 = alloca ptr, align 8
  store ptr %0, ptr %3, align 8
  %5 = load ptr, ptr %3, align 8
  %6 = call i32 @inflateStateCheck(ptr noundef %5)
  %7 = icmp ne i32 %6, 0
  br i1 %7, label %8, label %9

8:                                                ; preds = %1
  store i32 -2, ptr %2, align 4
  br label %63

9:                                                ; preds = %1
  %10 = load ptr, ptr %3, align 8
  %11 = getelementptr inbounds %struct.z_stream_s, ptr %10, i32 0, i32 7
  %12 = load ptr, ptr %11, align 8
  store ptr %12, ptr %4, align 8
  %13 = load ptr, ptr %4, align 8
  %14 = getelementptr inbounds %struct.inflate_state, ptr %13, i32 0, i32 8
  store i64 0, ptr %14, align 8
  %15 = load ptr, ptr %3, align 8
  %16 = getelementptr inbounds %struct.z_stream_s, ptr %15, i32 0, i32 5
  store i64 0, ptr %16, align 8
  %17 = load ptr, ptr %3, align 8
  %18 = getelementptr inbounds %struct.z_stream_s, ptr %17, i32 0, i32 2
  store i64 0, ptr %18, align 8
  %19 = load ptr, ptr %3, align 8
  %20 = getelementptr inbounds %struct.z_stream_s, ptr %19, i32 0, i32 6
  store ptr null, ptr %20, align 8
  %21 = load ptr, ptr %4, align 8
  %22 = getelementptr inbounds %struct.inflate_state, ptr %21, i32 0, i32 3
  %23 = load i32, ptr %22, align 8
  %24 = icmp ne i32 %23, 0
  br i1 %24, label %25, label %33

25:                                               ; preds = %9
  %26 = load ptr, ptr %4, align 8
  %27 = getelementptr inbounds %struct.inflate_state, ptr %26, i32 0, i32 3
  %28 = load i32, ptr %27, align 8
  %29 = and i32 %28, 1
  %30 = sext i32 %29 to i64
  %31 = load ptr, ptr %3, align 8
  %32 = getelementptr inbounds %struct.z_stream_s, ptr %31, i32 0, i32 12
  store i64 %30, ptr %32, align 8
  br label %33

33:                                               ; preds = %25, %9
  %34 = load ptr, ptr %4, align 8
  %35 = getelementptr inbounds %struct.inflate_state, ptr %34, i32 0, i32 1
  store i32 16180, ptr %35, align 8
  %36 = load ptr, ptr %4, align 8
  %37 = getelementptr inbounds %struct.inflate_state, ptr %36, i32 0, i32 2
  store i32 0, ptr %37, align 4
  %38 = load ptr, ptr %4, align 8
  %39 = getelementptr inbounds %struct.inflate_state, ptr %38, i32 0, i32 4
  store i32 0, ptr %39, align 4
  %40 = load ptr, ptr %4, align 8
  %41 = getelementptr inbounds %struct.inflate_state, ptr %40, i32 0, i32 5
  store i32 -1, ptr %41, align 8
  %42 = load ptr, ptr %4, align 8
  %43 = getelementptr inbounds %struct.inflate_state, ptr %42, i32 0, i32 6
  store i32 32768, ptr %43, align 4
  %44 = load ptr, ptr %4, align 8
  %45 = getelementptr inbounds %struct.inflate_state, ptr %44, i32 0, i32 9
  store ptr null, ptr %45, align 8
  %46 = load ptr, ptr %4, align 8
  %47 = getelementptr inbounds %struct.inflate_state, ptr %46, i32 0, i32 15
  store i64 0, ptr %47, align 8
  %48 = load ptr, ptr %4, align 8
  %49 = getelementptr inbounds %struct.inflate_state, ptr %48, i32 0, i32 16
  store i32 0, ptr %49, align 8
  %50 = load ptr, ptr %4, align 8
  %51 = getelementptr inbounds %struct.inflate_state, ptr %50, i32 0, i32 31
  %52 = getelementptr inbounds [1444 x %struct.code], ptr %51, i64 0, i64 0
  %53 = load ptr, ptr %4, align 8
  %54 = getelementptr inbounds %struct.inflate_state, ptr %53, i32 0, i32 28
  store ptr %52, ptr %54, align 8
  %55 = load ptr, ptr %4, align 8
  %56 = getelementptr inbounds %struct.inflate_state, ptr %55, i32 0, i32 21
  store ptr %52, ptr %56, align 8
  %57 = load ptr, ptr %4, align 8
  %58 = getelementptr inbounds %struct.inflate_state, ptr %57, i32 0, i32 20
  store ptr %52, ptr %58, align 8
  %59 = load ptr, ptr %4, align 8
  %60 = getelementptr inbounds %struct.inflate_state, ptr %59, i32 0, i32 32
  store i32 1, ptr %60, align 8
  %61 = load ptr, ptr %4, align 8
  %62 = getelementptr inbounds %struct.inflate_state, ptr %61, i32 0, i32 33
  store i32 -1, ptr %62, align 4
  store i32 0, ptr %2, align 4
  br label %63

63:                                               ; preds = %33, %8
  %64 = load i32, ptr %2, align 4
  ret i32 %64
}