; Function Attrs: mustprogress nofree norecurse nosync nounwind willreturn memory(readwrite, inaccessiblemem: none) uwtable
define dso_local range(i32 -2, 1) i32 @cm_zlib_inflateResetKeep(ptr noundef %0) local_unnamed_addr #0 {
  %2 = icmp eq ptr %0, null
  br i1 %2, label %inflateStateCheck.exit.thread, label %3

3:                                                ; preds = %1
  %4 = getelementptr inbounds nuw i8, ptr %0, i64 64
  %5 = load ptr, ptr %4, align 8
  %6 = icmp eq ptr %5, null
  br i1 %6, label %inflateStateCheck.exit.thread, label %7

7:                                                ; preds = %3
  %8 = getelementptr inbounds nuw i8, ptr %0, i64 72
  %9 = load ptr, ptr %8, align 8
  %10 = icmp eq ptr %9, null
  br i1 %10, label %inflateStateCheck.exit.thread, label %11

11:                                               ; preds = %7
  %12 = getelementptr inbounds nuw i8, ptr %0, i64 56
  %13 = load ptr, ptr %12, align 8
  %14 = icmp eq ptr %13, null
  br i1 %14, label %inflateStateCheck.exit.thread, label %15

15:                                               ; preds = %11
  %16 = load ptr, ptr %13, align 8
  %.not.i = icmp eq ptr %16, %0
  br i1 %.not.i, label %inflateStateCheck.exit, label %inflateStateCheck.exit.thread

inflateStateCheck.exit:                           ; preds = %15
  %17 = getelementptr inbounds nuw i8, ptr %13, i64 8
  %18 = load i32, ptr %17, align 8
  %19 = add i32 %18, -16180
  %or.cond.i = icmp ult i32 %19, 32
  br i1 %or.cond.i, label %20, label %inflateStateCheck.exit.thread

20:                                               ; preds = %inflateStateCheck.exit
  %21 = getelementptr inbounds nuw i8, ptr %13, i64 40
  store i64 0, ptr %21, align 8
  %22 = getelementptr inbounds nuw i8, ptr %0, i64 40
  %23 = getelementptr inbounds nuw i8, ptr %0, i64 16
  store i64 0, ptr %23, align 8
  %24 = getelementptr inbounds nuw i8, ptr %13, i64 16
  tail call void @llvm.memset.p0.i64(ptr noundef nonnull align 8 dereferenceable(16) %22, i8 0, i64 16, i1 false)
  %25 = load i32, ptr %24, align 8
  %.not24 = icmp eq i32 %25, 0
  br i1 %.not24, label %30, label %26

26:                                               ; preds = %20
  %27 = and i32 %25, 1
  %28 = zext nneg i32 %27 to i64
  %29 = getelementptr inbounds nuw i8, ptr %0, i64 96
  store i64 %28, ptr %29, align 8
  br label %30

30:                                               ; preds = %26, %20
  store i32 16180, ptr %17, align 8
  %31 = getelementptr inbounds nuw i8, ptr %13, i64 12
  store i32 0, ptr %31, align 4
  %32 = getelementptr inbounds nuw i8, ptr %13, i64 20
  store i32 0, ptr %32, align 4
  %33 = getelementptr inbounds nuw i8, ptr %13, i64 24
  store i32 -1, ptr %33, align 8
  %34 = getelementptr inbounds nuw i8, ptr %13, i64 28
  store i32 32768, ptr %34, align 4
  %35 = getelementptr inbounds nuw i8, ptr %13, i64 48
  store ptr null, ptr %35, align 8
  %36 = getelementptr inbounds nuw i8, ptr %13, i64 80
  store i64 0, ptr %36, align 8
  %37 = getelementptr inbounds nuw i8, ptr %13, i64 88
  store i32 0, ptr %37, align 8
  %38 = getelementptr inbounds nuw i8, ptr %13, i64 1368
  %39 = getelementptr inbounds nuw i8, ptr %13, i64 144
  store ptr %38, ptr %39, align 8
  %40 = getelementptr inbounds nuw i8, ptr %13, i64 112
  store ptr %38, ptr %40, align 8
  %41 = getelementptr inbounds nuw i8, ptr %13, i64 104
  store ptr %38, ptr %41, align 8
  %42 = getelementptr inbounds nuw i8, ptr %13, i64 7144
  store i32 1, ptr %42, align 8
  %43 = getelementptr inbounds nuw i8, ptr %13, i64 7148
  store i32 -1, ptr %43, align 4
  br label %inflateStateCheck.exit.thread

inflateStateCheck.exit.thread:                    ; preds = %11, %15, %1, %3, %7, %inflateStateCheck.exit, %30
  %.0 = phi i32 [ 0, %30 ], [ -2, %inflateStateCheck.exit ], [ -2, %7 ], [ -2, %3 ], [ -2, %1 ], [ -2, %15 ], [ -2, %11 ]
  ret i32 %.0
}